target datalayout = "e-m:e-p270:32:32-p271:32:32-p272:64:64-i64:64-i128:128-f80:128-n8:16:32:64-S128"
target triple = "x86_64-pc-linux-gnu"

%class.Metadata = type { ptr }
%class.OopHandle = type { ptr }
%class.AccessFlags = type { i32 }
%class.ClassFileParser = type { ptr, ptr, ptr, i8, i8, i32, ptr, ptr, ptr, ptr, ptr, ptr, ptr, i16, ptr, ptr, ptr, ptr, ptr, ptr, ptr, ptr, ptr, ptr, ptr, ptr, ptr, ptr, ptr, ptr, ptr, [128 x i8], i32, i32, i32, %class.Handle, %class.AccessFlags, i32, i16, i8, i32, ptr, i16, i16, i16, i16, i16, i16, i16, i16, i8, i8, i8, i8, i8, i8, i8, i8, i8, i32 }
%class.Handle = type { ptr }
%class.ConstantPool = type <{ %class.Metadata, ptr, ptr, ptr, ptr, ptr, i16, i16, i16, i16, i16, [2 x i8], i32, %union.anon.2, [4 x i8] }>
%union.anon.2 = type { i32 }
%class.InstanceKlass = type { %class.Klass.base, ptr, ptr, ptr, ptr, ptr, ptr, ptr, ptr, ptr, ptr, i32, i32, i32, i32, i16, i16, i16, i16, i8, i8, i8, i8, %class.InstanceKlassFlags, ptr, ptr, ptr, ptr, ptr, i64, ptr, ptr, ptr, ptr, ptr, ptr, ptr, ptr, ptr, ptr, ptr, ptr, ptr }
%class.Klass.base = type <{ %class.Metadata, i32, i32, i32, i32, ptr, ptr, ptr, [8 x ptr], %class.OopHandle, ptr, ptr, ptr, ptr, ptr, i32, %class.AccessFlags, i64, i64, i8, i8, i16, i16, [2 x i8], i32 }>
%class.InstanceKlassFlags = type <{ i16, i8, i8 }>

; Function Attrs: mustprogress nounwind uwtable
define hidden void @_ZN15ClassFileParser20clear_class_metadataEv(ptr noundef nonnull align 8 dereferenceable(440) %0) #1 align 2 {
  %2 = alloca ptr, align 8
  store ptr %0, ptr %2, align 8
  %3 = load ptr, ptr %2, align 8
  %4 = getelementptr inbounds %class.ClassFileParser, ptr %3, i32 0, i32 7
  store ptr null, ptr %4, align 8
  %5 = getelementptr inbounds %class.ClassFileParser, ptr %3, i32 0, i32 8
  store ptr null, ptr %5, align 8
  %6 = getelementptr inbounds %class.ClassFileParser, ptr %3, i32 0, i32 9
  store ptr null, ptr %6, align 8
  %7 = getelementptr inbounds %class.ClassFileParser, ptr %3, i32 0, i32 10
  store ptr null, ptr %7, align 8
  %8 = getelementptr inbounds %class.ClassFileParser, ptr %3, i32 0, i32 11
  store ptr null, ptr %8, align 8
  %9 = getelementptr inbounds %class.ClassFileParser, ptr %3, i32 0, i32 12
  store ptr null, ptr %9, align 8
  %10 = getelementptr inbounds %class.ClassFileParser, ptr %3, i32 0, i32 14
  store ptr null, ptr %10, align 8
  %11 = getelementptr inbounds %class.ClassFileParser, ptr %3, i32 0, i32 18
  store ptr null, ptr %11, align 8
  %12 = getelementptr inbounds %class.ClassFileParser, ptr %3, i32 0, i32 20
  store ptr null, ptr %12, align 8
  %13 = getelementptr inbounds %class.ClassFileParser, ptr %3, i32 0, i32 19
  store ptr null, ptr %13, align 8
  %14 = getelementptr inbounds %class.ClassFileParser, ptr %3, i32 0, i32 22
  store ptr null, ptr %14, align 8
  %15 = getelementptr inbounds %class.ClassFileParser, ptr %3, i32 0, i32 21
  store ptr null, ptr %15, align 8
  %16 = getelementptr inbounds %class.ClassFileParser, ptr %3, i32 0, i32 15
  store ptr null, ptr %16, align 8
  ret void
}

; Function Attrs: mustprogress nounwind uwtable
define linkonce_odr hidden void @_ZN13InstanceKlass21set_record_componentsEP5ArrayIP15RecordComponentE(ptr noundef nonnull align 8 dereferenceable(464) %0, ptr noundef %1) #1 comdat align 2 {
  %3 = alloca ptr, align 8
  %4 = alloca ptr, align 8
  store ptr %0, ptr %3, align 8
  store ptr %1, ptr %4, align 8
  %5 = load ptr, ptr %3, align 8
  %6 = load ptr, ptr %4, align 8
  %7 = getelementptr inbounds %class.InstanceKlass, ptr %5, i32 0, i32 9
  store ptr %6, ptr %7, align 8
  ret void
}

; Function Attrs: mustprogress nounwind uwtable
define linkonce_odr hidden void @_ZN13InstanceKlass24set_permitted_subclassesEP5ArrayItE(ptr noundef nonnull align 8 dereferenceable(464) %0, ptr noundef %1) #1 comdat align 2 {
  %3 = alloca ptr, align 8
  %4 = alloca ptr, align 8
  store ptr %0, ptr %3, align 8
  store ptr %1, ptr %4, align 8
  %5 = load ptr, ptr %3, align 8
  %6 = load ptr, ptr %4, align 8
  %7 = getelementptr inbounds %class.InstanceKlass, ptr %5, i32 0, i32 8
  store ptr %6, ptr %7, align 8
  ret void
}

; Function Attrs: mustprogress nounwind uwtable
define linkonce_odr hidden void @_ZN13InstanceKlass15set_annotationsEP11Annotations(ptr noundef nonnull align 8 dereferenceable(464) %0, ptr noundef %1) #1 comdat align 2 {
  %3 = alloca ptr, align 8
  %4 = alloca ptr, align 8
  store ptr %0, ptr %3, align 8
  store ptr %1, ptr %4, align 8
  %5 = load ptr, ptr %3, align 8
  %6 = load ptr, ptr %4, align 8
  %7 = getelementptr inbounds %class.InstanceKlass, ptr %5, i32 0, i32 1
  store ptr %6, ptr %7, align 8
  ret void
}

; Function Attrs: mustprogress nounwind uwtable
define linkonce_odr hidden void @_ZN13InstanceKlass19set_nest_host_indexEt(ptr noundef nonnull align 8 dereferenceable(464) %0, i16 noundef zeroext %1) #1 comdat align 2 {
  %3 = alloca ptr, align 8
  %4 = alloca i16, align 2
  store ptr %0, ptr %3, align 8
  store i16 %1, ptr %4, align 2
  %5 = load ptr, ptr %3, align 8
  %6 = load i16, ptr %4, align 2
  %7 = getelementptr inbounds %class.InstanceKlass, ptr %5, i32 0, i32 15
  store i16 %6, ptr %7, align 8
  ret void
}

; Function Attrs: mustprogress nounwind uwtable
define linkonce_odr hidden void @_ZN13InstanceKlass16set_nest_membersEP5ArrayItE(ptr noundef nonnull align 8 dereferenceable(464) %0, ptr noundef %1) #1 comdat align 2 {
  %3 = alloca ptr, align 8
  %4 = alloca ptr, align 8
  store ptr %0, ptr %3, align 8
  store ptr %1, ptr %4, align 8
  %5 = load ptr, ptr %3, align 8
  %6 = load ptr, ptr %4, align 8
  %7 = getelementptr inbounds %class.InstanceKlass, ptr %5, i32 0, i32 6
  store ptr %6, ptr %7, align 8
  ret void
}

; Function Attrs: mustprogress nounwind uwtable
define linkonce_odr hidden void @_ZN13InstanceKlass17set_inner_classesEP5ArrayItE(ptr noundef nonnull align 8 dereferenceable(464) %0, ptr noundef %1) #1 comdat align 2 {
  %3 = alloca ptr, align 8
  %4 = alloca ptr, align 8
  store ptr %0, ptr %3, align 8
  store ptr %1, ptr %4, align 8
  %5 = load ptr, ptr %3, align 8
  %6 = load ptr, ptr %4, align 8
  %7 = getelementptr inbounds %class.InstanceKlass, ptr %5, i32 0, i32 5
  store ptr %6, ptr %7, align 8
  ret void
}

; Function Attrs: mustprogress nounwind uwtable
define linkonce_odr hidden void @_ZN13InstanceKlass11set_methodsEP5ArrayIP6MethodE(ptr noundef nonnull align 8 dereferenceable(464) %0, ptr noundef %1) #1 comdat align 2 {
  %3 = alloca ptr, align 8
  %4 = alloca ptr, align 8
  store ptr %0, ptr %3, align 8
  store ptr %1, ptr %4, align 8
  %5 = load ptr, ptr %3, align 8
  %6 = load ptr, ptr %4, align 8
  %7 = getelementptr inbounds %class.InstanceKlass, ptr %5, i32 0, i32 35
  store ptr %6, ptr %7, align 8
  ret void
}

; Function Attrs: mustprogress nounwind uwtable
define linkonce_odr hidden void @_ZN13InstanceKlass17set_fields_statusEP5ArrayI11FieldStatusE(ptr noundef nonnull align 8 dereferenceable(464) %0, ptr noundef %1) #1 comdat align 2 {
  %3 = alloca ptr, align 8
  %4 = alloca ptr, align 8
  store ptr %0, ptr %3, align 8
  store ptr %1, ptr %4, align 8
  %5 = load ptr, ptr %3, align 8
  %6 = load ptr, ptr %4, align 8
  %7 = getelementptr inbounds %class.InstanceKlass, ptr %5, i32 0, i32 42
  store ptr %6, ptr %7, align 8
  ret void
}

; Function Attrs: mustprogress nounwind uwtable
define linkonce_odr hidden void @_ZN13InstanceKlass20set_fieldinfo_streamEP5ArrayIhE(ptr noundef nonnull align 8 dereferenceable(464) %0, ptr noundef %1) #1 comdat align 2 {
  %3 = alloca ptr, align 8
  %4 = alloca ptr, align 8
  store ptr %0, ptr %3, align 8
  store ptr %1, ptr %4, align 8
  %5 = load ptr, ptr %3, align 8
  %6 = load ptr, ptr %4, align 8
  %7 = getelementptr inbounds %class.InstanceKlass, ptr %5, i32 0, i32 41
  store ptr %6, ptr %7, align 8
  ret void
}

; Function Attrs: mustprogress nounwind uwtable
define linkonce_odr hidden void @_ZN13InstanceKlass13set_constantsEP12ConstantPool(ptr noundef nonnull align 8 dereferenceable(464) %0, ptr noundef %1) #1 comdat align 2 {
  %3 = alloca ptr, align 8
  %4 = alloca ptr, align 8
  store ptr %0, ptr %3, align 8
  store ptr %1, ptr %4, align 8
  %5 = load ptr, ptr %3, align 8
  %6 = load ptr, ptr %4, align 8
  %7 = getelementptr inbounds %class.InstanceKlass, ptr %5, i32 0, i32 4
  store ptr %6, ptr %7, align 8
  ret void
}

; Function Attrs: mustprogress nounwind uwtable
define linkonce_odr hidden void @_ZN12ConstantPool15set_pool_holderEP13InstanceKlass(ptr noundef nonnull align 8 dereferenceable(68) %0, ptr noundef %1) #1 comdat align 2 {
  %3 = alloca ptr, align 8
  %4 = alloca ptr, align 8
  store ptr %0, ptr %3, align 8
  store ptr %1, ptr %4, align 8
  %5 = load ptr, ptr %3, align 8
  %6 = load ptr, ptr %4, align 8
  %7 = getelementptr inbounds %class.ConstantPool, ptr %5, i32 0, i32 3
  store ptr %6, ptr %7, align 8
  ret void
}

; Function Attrs: mustprogress nounwind uwtable
define hidden void @_ZN15ClassFileParser27apply_parsed_class_metadataEP13InstanceKlassi(ptr noundef nonnull align 8 dereferenceable(440) %0, ptr noundef %1, i32 noundef %2) #1 align 2 {
  %4 = alloca ptr, align 8
  %5 = alloca ptr, align 8
  %6 = alloca i32, align 4
  store ptr %0, ptr %4, align 8
  store ptr %1, ptr %5, align 8
  store i32 %2, ptr %6, align 4
  %7 = load ptr, ptr %4, align 8
  %8 = getelementptr inbounds %class.ClassFileParser, ptr %7, i32 0, i32 7
  %9 = load ptr, ptr %8, align 8
  %10 = load ptr, ptr %5, align 8
  call void @_ZN12ConstantPool15set_pool_holderEP13InstanceKlass(ptr noundef nonnull align 8 dereferenceable(68) %9, ptr noundef %10)
  %11 = load ptr, ptr %5, align 8
  %12 = getelementptr inbounds %class.ClassFileParser, ptr %7, i32 0, i32 7
  %13 = load ptr, ptr %12, align 8
  call void @_ZN13InstanceKlass13set_constantsEP12ConstantPool(ptr noundef nonnull align 8 dereferenceable(464) %11, ptr noundef %13)
  %14 = load ptr, ptr %5, align 8
  %15 = getelementptr inbounds %class.ClassFileParser, ptr %7, i32 0, i32 8
  %16 = load ptr, ptr %15, align 8
  call void @_ZN13InstanceKlass20set_fieldinfo_streamEP5ArrayIhE(ptr noundef nonnull align 8 dereferenceable(464) %14, ptr noundef %16)
  %17 = load ptr, ptr %5, align 8
  %18 = getelementptr inbounds %class.ClassFileParser, ptr %7, i32 0, i32 9
  %19 = load ptr, ptr %18, align 8
  call void @_ZN13InstanceKlass17set_fields_statusEP5ArrayI11FieldStatusE(ptr noundef nonnull align 8 dereferenceable(464) %17, ptr noundef %19)
  %20 = load ptr, ptr %5, align 8
  %21 = getelementptr inbounds %class.ClassFileParser, ptr %7, i32 0, i32 10
  %22 = load ptr, ptr %21, align 8
  call void @_ZN13InstanceKlass11set_methodsEP5ArrayIP6MethodE(ptr noundef nonnull align 8 dereferenceable(464) %20, ptr noundef %22)
  %23 = load ptr, ptr %5, align 8
  %24 = getelementptr inbounds %class.ClassFileParser, ptr %7, i32 0, i32 11
  %25 = load ptr, ptr %24, align 8
  call void @_ZN13InstanceKlass17set_inner_classesEP5ArrayItE(ptr noundef nonnull align 8 dereferenceable(464) %23, ptr noundef %25)
  %26 = load ptr, ptr %5, align 8
  %27 = getelementptr inbounds %class.ClassFileParser, ptr %7, i32 0, i32 12
  %28 = load ptr, ptr %27, align 8
  call void @_ZN13InstanceKlass16set_nest_membersEP5ArrayItE(ptr noundef nonnull align 8 dereferenceable(464) %26, ptr noundef %28)
  %29 = load ptr, ptr %5, align 8
  %30 = getelementptr inbounds %class.ClassFileParser, ptr %7, i32 0, i32 13
  %31 = load i16, ptr %30, align 8
  call void @_ZN13InstanceKlass19set_nest_host_indexEt(ptr noundef nonnull align 8 dereferenceable(464) %29, i16 noundef zeroext %31)
  %32 = load ptr, ptr %5, align 8
  %33 = getelementptr inbounds %class.ClassFileParser, ptr %7, i32 0, i32 18
  %34 = load ptr, ptr %33, align 8
  call void @_ZN13InstanceKlass15set_annotationsEP11Annotations(ptr noundef nonnull align 8 dereferenceable(464) %32, ptr noundef %34)
  %35 = load ptr, ptr %5, align 8
  %36 = getelementptr inbounds %class.ClassFileParser, ptr %7, i32 0, i32 14
  %37 = load ptr, ptr %36, align 8
  call void @_ZN13InstanceKlass24set_permitted_subclassesEP5ArrayItE(ptr noundef nonnull align 8 dereferenceable(464) %35, ptr noundef %37)
  %38 = load ptr, ptr %5, align 8
  %39 = getelementptr inbounds %class.ClassFileParser, ptr %7, i32 0, i32 15
  %40 = load ptr, ptr %39, align 8
  call void @_ZN13InstanceKlass21set_record_componentsEP5ArrayIP15RecordComponentE(ptr noundef nonnull align 8 dereferenceable(464) %38, ptr noundef %40)
  call void @_ZN15ClassFileParser20clear_class_metadataEv(ptr noundef nonnull align 8 dereferenceable(440) %7)
  ret void
}